(dp1
S'collector'
p2
S'coverage v3.0'
p3
sS'lines'
p4
(dp5
S'/usr/local/lib/python2.6/dist-packages/nose-0.11.1-py2.6.egg/nose/selector.py'
p6
(lp7
I35
aI37
aI40
aI41
aI42
aI43
aI44
aI45
aI222
aI224
aI225
aI226
aI227
aI228
aI229
aI232
aI233
aI234
aI235
aI236
aI237
aI238
aI239
aI240
aI241
asS'/usr/local/lib/python2.6/dist-packages/nose-0.11.1-py2.6.egg/nose/util.py'
p8
(lp9
I144
aI285
aI286
aI287
aI206
aI209
aI210
aI211
aI212
aI214
aI217
aI359
aI360
aI361
aI362
aI364
aI365
aI495
aI497
aI499
aI500
aI502
asS'/usr/local/lib/python2.6/dist-packages/nose-0.11.1-py2.6.egg/nose/suite.py'
p10
(lp11
I513
aI514
aI515
aI516
aI517
aI524
aI45
aI60
aI63
aI64
aI65
aI78
aI79
aI80
aI81
aI82
aI83
aI87
aI88
aI89
aI90
aI91
aI97
aI98
aI132
aI133
aI134
aI135
aI137
aI138
aI139
aI140
aI141
aI154
aI178
aI179
aI182
aI183
aI189
aI190
aI191
aI197
aI199
aI200
aI201
aI241
aI242
aI246
aI249
aI250
aI251
aI295
aI296
aI297
aI298
aI299
aI300
aI344
aI345
aI346
aI366
aI368
aI369
aI373
aI374
aI375
aI376
aI377
aI378
aI379
aI390
aI391
aI392
aI393
aI394
aI395
aI396
aI399
aI427
aI429
aI430
aI432
aI433
aI434
aI441
aI444
aI445
aI446
aI447
aI456
aI509
aI510
asS'/usr/local/lib/python2.6/dist-packages/nose-0.11.1-py2.6.egg/nose/core.py'
p12
(lp13
I44
aI34
aI36
aI37
aI41
aI42
aI43
aI172
aI173
aI178
aI51
aI55
aI184
aI185
aI186
aI59
aI188
aI189
aI62
aI63
aI192
aI56
aI187
aI60
aI61
aI50
aI190
asS'/usr/local/lib/python2.6/dist-packages/nose-0.11.1-py2.6.egg/nose/proxy.py'
p14
(lp15
I64
aI43
aI45
aI78
aI47
aI80
aI81
aI82
aI83
aI62
aI46
aI57
aI58
aI59
aI60
aI30
asS'/usr/local/lib/python2.6/dist-packages/coverage-3.0-py2.6-linux-i686.egg/coverage/__init__.py'
p16
(lp17
I35
aI37
asS'/usr/local/lib/python2.6/dist-packages/nose-0.11.1-py2.6.egg/nose/plugins/cover.py'
p18
(lp19
I152
aI153
aI154
asS'/usr/local/lib/python2.6/dist-packages/coverage-3.0-py2.6-linux-i686.egg/coverage/collector.py'
p20
(lp21
I144
aI145
aI141
aI142
asS'/usr/local/lib/python2.6/dist-packages/nose-0.11.1-py2.6.egg/nose/plugins/manager.py'
p22
(lp23
I132
aI149
aI150
aI151
aI231
aI160
aI161
aI167
aI71
aI72
aI76
aI77
aI78
aI79
aI82
aI88
aI89
aI90
aI94
aI101
aI97
aI229
aI230
aI103
aI104
aI233
aI106
aI107
aI111
aI232
aI234
asS'/usr/local/lib/python2.6/dist-packages/nose-0.11.1-py2.6.egg/nose/result.py'
p24
(lp25
I34
aI35
aI36
aI37
aI39
aI40
aI81
aI82
aI83
aI84
aI87
aI88
asS'/usr/local/lib/python2.6/dist-packages/nose-0.11.1-py2.6.egg/nose/importer.py'
p26
(lp27
I130
aI131
aI133
aI134
aI135
aI136
aI138
aI139
aI140
aI141
aI142
aI143
aI144
aI145
aI148
aI22
aI152
aI153
aI154
aI24
asS'/usr/local/lib/python2.6/dist-packages/coverage-3.0-py2.6-linux-i686.egg/coverage/control.py'
p28
(lp29
I137
asS'/usr/local/lib/python2.6/dist-packages/nose-0.11.1-py2.6.egg/nose/loader.py'
p30
(lp31
I128
aI130
aI131
aI132
aI395
aI396
aI397
aI77
aI408
aI415
aI416
aI170
aI171
aI174
aI175
aI434
aI435
aI436
aI437
aI183
aI184
aI185
aI442
aI331
aI75
aI333
aI78
aI79
aI80
aI337
aI82
aI340
aI85
aI86
aI87
aI88
aI89
aI90
aI91
aI92
aI336
aI81
aI365
aI127
aI124
aI125
aI126
aI341
asS'/usr/local/lib/python2.6/dist-packages/nose-0.11.1-py2.6.egg/nose/plugins/errorclass.py'
p32
(lp33
I142
aI144
aI145
aI146
aI147
aI148
ass.